target datalayout = "e-m:e-p270:32:32-p271:32:32-p272:64:64-i64:64-i128:128-f80:128-n8:16:32:64-S128"
target triple = "x86_64-pc-linux-gnu"

%class.expr_substitution = type <{ ptr, %class.obj_map.28, %class.scoped_ptr, %class.scoped_ptr.33, i8, [7 x i8] }>
%class.obj_map.28 = type { %class.core_hashtable.29 }
%class.core_hashtable.29 = type <{ ptr, i32, i32, i32, [4 x i8] }>
%class.scoped_ptr = type { ptr }
%class.scoped_ptr.33 = type { ptr }
%"struct.expr_replacer::scoped_set_subst" = type { ptr }
%class.obj_ref.26 = type { ptr, ptr }
%class.ast = type { i32, i32, i32, i32 }

; Function Attrs: mustprogress nounwind uwtable
define linkonce_odr hidden void @_ZN3ast7inc_refEv(ptr noundef nonnull align 4 dereferenceable(16) %0) #6 comdat align 2 {
  %2 = alloca ptr, align 8
  store ptr %0, ptr %2, align 8, !tbaa !106
  %3 = load ptr, ptr %2, align 8
  %4 = getelementptr inbounds nuw %class.ast, ptr %3, i32 0, i32 2
  %5 = load i32, ptr %4, align 4, !tbaa !238
  %6 = add i32 %5, 1
  store i32 %6, ptr %4, align 4, !tbaa !238
  ret void
}

; Function Attrs: mustprogress uwtable
define linkonce_odr hidden void @_ZN11ast_manager7inc_refEP3ast(ptr noundef nonnull align 8 dereferenceable(976) %0, ptr noundef %1) #4 comdat align 2 {
  %3 = alloca ptr, align 8
  %4 = alloca ptr, align 8
  store ptr %0, ptr %3, align 8, !tbaa !18
  store ptr %1, ptr %4, align 8, !tbaa !106
  %5 = load ptr, ptr %4, align 8, !tbaa !106
  %6 = icmp ne ptr %5, null
  br i1 %6, label %7, label %9

7:                                                ; preds = %2
  %8 = load ptr, ptr %4, align 8, !tbaa !106
  call void @_ZN3ast7inc_refEv(ptr noundef nonnull align 4 dereferenceable(16) %8)
  br label %9

9:                                                ; preds = %7, %2
  ret void
}

; Function Attrs: mustprogress uwtable
define linkonce_odr hidden void @_ZN7obj_refI4expr11ast_managerE7inc_refEv(ptr noundef nonnull align 8 dereferenceable(16) %0) #4 comdat align 2 {
  %2 = alloca ptr, align 8
  store ptr %0, ptr %2, align 8, !tbaa !10
  %3 = load ptr, ptr %2, align 8
  %4 = getelementptr inbounds nuw %class.obj_ref.26, ptr %3, i32 0, i32 0
  %5 = load ptr, ptr %4, align 8, !tbaa !200
  %6 = icmp ne ptr %5, null
  br i1 %6, label %7, label %12

7:                                                ; preds = %1
  %8 = getelementptr inbounds nuw %class.obj_ref.26, ptr %3, i32 0, i32 1
  %9 = load ptr, ptr %8, align 8, !tbaa !199
  %10 = getelementptr inbounds nuw %class.obj_ref.26, ptr %3, i32 0, i32 0
  %11 = load ptr, ptr %10, align 8, !tbaa !200
  call void @_ZN11ast_manager7inc_refEP3ast(ptr noundef nonnull align 8 dereferenceable(976) %9, ptr noundef %11)
  br label %12

12:                                               ; preds = %7, %1
  ret void
}

; Function Attrs: mustprogress uwtable
define linkonce_odr hidden void @_ZN7obj_refI4expr11ast_managerEC2EPS0_RS1_(ptr noundef nonnull align 8 dereferenceable(16) %0, ptr noundef %1, ptr noundef nonnull align 8 dereferenceable(976) %2) unnamed_addr #4 comdat align 2 {
  %4 = alloca ptr, align 8
  %5 = alloca ptr, align 8
  %6 = alloca ptr, align 8
  store ptr %0, ptr %4, align 8, !tbaa !10
  store ptr %1, ptr %5, align 8, !tbaa !8
  store ptr %2, ptr %6, align 8, !tbaa !18
  %7 = load ptr, ptr %4, align 8
  %8 = getelementptr inbounds nuw %class.obj_ref.26, ptr %7, i32 0, i32 0
  %9 = load ptr, ptr %5, align 8, !tbaa !8
  store ptr %9, ptr %8, align 8, !tbaa !200
  %10 = getelementptr inbounds nuw %class.obj_ref.26, ptr %7, i32 0, i32 1
  %11 = load ptr, ptr %6, align 8, !tbaa !18
  store ptr %11, ptr %10, align 8, !tbaa !18
  call void @_ZN7obj_refI4expr11ast_managerE7inc_refEv(ptr noundef nonnull align 8 dereferenceable(16) %7)
  ret void
}

; Function Attrs: mustprogress nounwind uwtable
define linkonce_odr hidden noundef ptr @_ZNK7obj_refI4expr11ast_managerEcvPS0_Ev(ptr noundef nonnull align 8 dereferenceable(16) %0) #6 comdat align 2 {
  %2 = alloca ptr, align 8
  store ptr %0, ptr %2, align 8, !tbaa !10
  %3 = load ptr, ptr %2, align 8
  %4 = getelementptr inbounds nuw %class.obj_ref.26, ptr %3, i32 0, i32 0
  %5 = load ptr, ptr %4, align 8, !tbaa !200
  ret ptr %5
}

; Function Attrs: mustprogress nounwind uwtable
define linkonce_odr hidden void @_ZN13expr_replacer16scoped_set_substD2Ev(ptr noundef nonnull align 8 dereferenceable(8) %0) unnamed_addr #6 comdat align 2 personality ptr @__gxx_personality_v0 {
  %2 = alloca ptr, align 8
  store ptr %0, ptr %2, align 8, !tbaa !27
  %3 = load ptr, ptr %2, align 8
  %4 = getelementptr inbounds nuw %"struct.expr_replacer::scoped_set_subst", ptr %3, i32 0, i32 0
  %5 = load ptr, ptr %4, align 8, !tbaa !31
  %6 = load ptr, ptr %5, align 8, !tbaa !14
  %7 = getelementptr inbounds ptr, ptr %6, i64 3
  %8 = load ptr, ptr %7, align 8
  invoke void %8(ptr noundef nonnull align 8 dereferenceable(8) %5, ptr noundef null)
          to label %9 unwind label %10

9:                                                ; preds = %1
  ret void

10:                                               ; preds = %1
  %11 = landingpad { ptr, i32 }
          catch ptr null
  %12 = extractvalue { ptr, i32 } %11, 0
  call void @__clang_call_terminate(ptr %12) #19
  unreachable
}

; Function Attrs: mustprogress uwtable
define linkonce_odr hidden void @_ZN13expr_replacerclER7obj_refI4expr11ast_managerE(ptr noundef nonnull align 8 dereferenceable(8) %0, ptr noundef nonnull align 8 dereferenceable(16) %1) #4 comdat align 2 personality ptr @__gxx_personality_v0 {
  %3 = alloca ptr, align 8
  %4 = alloca ptr, align 8
  %5 = alloca %class.obj_ref.26, align 8
  %6 = alloca ptr, align 8
  %7 = alloca i32, align 4
  store ptr %0, ptr %3, align 8, !tbaa !3
  store ptr %1, ptr %4, align 8, !tbaa !10
  %8 = load ptr, ptr %3, align 8
  call void @llvm.lifetime.start.p0(i64 16, ptr %5) #3
  %9 = load ptr, ptr %4, align 8, !tbaa !10
  %10 = call noundef ptr @_ZNK7obj_refI4expr11ast_managerEcvPS0_Ev(ptr noundef nonnull align 8 dereferenceable(16) %9)
  %11 = load ptr, ptr %8, align 8, !tbaa !14
  %12 = getelementptr inbounds ptr, ptr %11, i64 2
  %13 = load ptr, ptr %12, align 8
  %14 = call noundef nonnull align 8 dereferenceable(976) ptr %13(ptr noundef nonnull align 8 dereferenceable(8) %8)
  call void @_ZN7obj_refI4expr11ast_managerEC2EPS0_RS1_(ptr noundef nonnull align 8 dereferenceable(16) %5, ptr noundef %10, ptr noundef nonnull align 8 dereferenceable(976) %14)
  %15 = invoke noundef ptr @_ZNK7obj_refI4expr11ast_managerEcvPS0_Ev(ptr noundef nonnull align 8 dereferenceable(16) %5)
          to label %16 unwind label %19

16:                                               ; preds = %2
  %17 = load ptr, ptr %4, align 8, !tbaa !10
  invoke void @_ZN13expr_replacerclEP4exprR7obj_refIS0_11ast_managerE(ptr noundef nonnull align 8 dereferenceable(8) %8, ptr noundef %15, ptr noundef nonnull align 8 dereferenceable(16) %17)
          to label %18 unwind label %19

18:                                               ; preds = %16
  call void @_ZN7obj_refI4expr11ast_managerED2Ev(ptr noundef nonnull align 8 dereferenceable(16) %5) #3
  call void @llvm.lifetime.end.p0(i64 16, ptr %5) #3
  ret void

19:                                               ; preds = %16, %2
  %20 = landingpad { ptr, i32 }
          cleanup
  %21 = extractvalue { ptr, i32 } %20, 0
  store ptr %21, ptr %6, align 8
  %22 = extractvalue { ptr, i32 } %20, 1
  store i32 %22, ptr %7, align 4
  call void @_ZN7obj_refI4expr11ast_managerED2Ev(ptr noundef nonnull align 8 dereferenceable(16) %5) #3
  call void @llvm.lifetime.end.p0(i64 16, ptr %5) #3
  br label %23

23:                                               ; preds = %19
  %24 = load ptr, ptr %6, align 8
  %25 = load i32, ptr %7, align 4
  %26 = insertvalue { ptr, i32 } poison, ptr %24, 0
  %27 = insertvalue { ptr, i32 } %26, i32 %25, 1
  resume { ptr, i32 } %27
}

; Function Attrs: mustprogress uwtable
define linkonce_odr hidden void @_ZN13expr_replacer16scoped_set_substC2ERS_R17expr_substitution(ptr noundef nonnull align 8 dereferenceable(8) %0, ptr noundef nonnull align 8 dereferenceable(8) %1, ptr noundef nonnull align 8 dereferenceable(49) %2) unnamed_addr #4 comdat align 2 {
  %4 = alloca ptr, align 8
  %5 = alloca ptr, align 8
  %6 = alloca ptr, align 8
  store ptr %0, ptr %4, align 8, !tbaa !27
  store ptr %1, ptr %5, align 8, !tbaa !3
  store ptr %2, ptr %6, align 8, !tbaa !29
  %7 = load ptr, ptr %4, align 8
  %8 = getelementptr inbounds nuw %"struct.expr_replacer::scoped_set_subst", ptr %7, i32 0, i32 0
  %9 = load ptr, ptr %5, align 8, !tbaa !3
  store ptr %9, ptr %8, align 8, !tbaa !3
  %10 = getelementptr inbounds nuw %"struct.expr_replacer::scoped_set_subst", ptr %7, i32 0, i32 0
  %11 = load ptr, ptr %10, align 8, !tbaa !31
  %12 = load ptr, ptr %6, align 8, !tbaa !29
  %13 = load ptr, ptr %11, align 8, !tbaa !14
  %14 = getelementptr inbounds ptr, ptr %13, i64 3
  %15 = load ptr, ptr %14, align 8
  call void %15(ptr noundef nonnull align 8 dereferenceable(8) %11, ptr noundef %12)
  ret void
}

; Function Attrs: mustprogress uwtable
define hidden void @_ZN13expr_replacer18apply_substitutionEP4exprS1_R7obj_refIS0_11ast_managerE(ptr noundef nonnull align 8 dereferenceable(8) %0, ptr noundef %1, ptr noundef %2, ptr noundef nonnull align 8 dereferenceable(16) %3) #4 align 2 personality ptr @__gxx_personality_v0 {
  %5 = alloca ptr, align 8
  %6 = alloca ptr, align 8
  %7 = alloca ptr, align 8
  %8 = alloca ptr, align 8
  %9 = alloca %class.expr_substitution, align 8
  %10 = alloca ptr, align 8
  %11 = alloca i32, align 4
  %12 = alloca %"struct.expr_replacer::scoped_set_subst", align 8
  store ptr %0, ptr %5, align 8, !tbaa !3
  store ptr %1, ptr %6, align 8, !tbaa !8
  store ptr %2, ptr %7, align 8, !tbaa !8
  store ptr %3, ptr %8, align 8, !tbaa !10
  %13 = load ptr, ptr %5, align 8
  call void @llvm.lifetime.start.p0(i64 56, ptr %9) #3
  %14 = load ptr, ptr %13, align 8, !tbaa !14
  %15 = getelementptr inbounds ptr, ptr %14, i64 2
  %16 = load ptr, ptr %15, align 8
  %17 = call noundef nonnull align 8 dereferenceable(976) ptr %16(ptr noundef nonnull align 8 dereferenceable(8) %13)
  call void @_ZN17expr_substitutionC1ER11ast_manager(ptr noundef nonnull align 8 dereferenceable(49) %9, ptr noundef nonnull align 8 dereferenceable(976) %17)
  %18 = load ptr, ptr %6, align 8, !tbaa !8
  %19 = load ptr, ptr %7, align 8, !tbaa !8
  invoke void @_ZN17expr_substitution6insertEP4exprS1_P3appPN18dependency_managerIN11ast_manager22expr_dependency_configEE10dependencyE(ptr noundef nonnull align 8 dereferenceable(49) %9, ptr noundef %18, ptr noundef %19, ptr noundef null, ptr noundef null)
          to label %20 unwind label %24

20:                                               ; preds = %4
  call void @llvm.lifetime.start.p0(i64 8, ptr %12) #3
  invoke void @_ZN13expr_replacer16scoped_set_substC2ERS_R17expr_substitution(ptr noundef nonnull align 8 dereferenceable(8) %12, ptr noundef nonnull align 8 dereferenceable(8) %13, ptr noundef nonnull align 8 dereferenceable(49) %9)
          to label %21 unwind label %28

21:                                               ; preds = %20
  %22 = load ptr, ptr %8, align 8, !tbaa !10
  invoke void @_ZN13expr_replacerclER7obj_refI4expr11ast_managerE(ptr noundef nonnull align 8 dereferenceable(8) %13, ptr noundef nonnull align 8 dereferenceable(16) %22)
          to label %23 unwind label %32

23:                                               ; preds = %21
  call void @_ZN13expr_replacer16scoped_set_substD2Ev(ptr noundef nonnull align 8 dereferenceable(8) %12) #3
  call void @llvm.lifetime.end.p0(i64 8, ptr %12) #3
  call void @_ZN17expr_substitutionD1Ev(ptr noundef nonnull align 8 dereferenceable(49) %9) #3
  call void @llvm.lifetime.end.p0(i64 56, ptr %9) #3
  ret void

24:                                               ; preds = %4
  %25 = landingpad { ptr, i32 }
          cleanup
  %26 = extractvalue { ptr, i32 } %25, 0
  store ptr %26, ptr %10, align 8
  %27 = extractvalue { ptr, i32 } %25, 1
  store i32 %27, ptr %11, align 4
  br label %37

28:                                               ; preds = %20
  %29 = landingpad { ptr, i32 }
          cleanup
  %30 = extractvalue { ptr, i32 } %29, 0
  store ptr %30, ptr %10, align 8
  %31 = extractvalue { ptr, i32 } %29, 1
  store i32 %31, ptr %11, align 4
  br label %36

32:                                               ; preds = %21
  %33 = landingpad { ptr, i32 }
          cleanup
  %34 = extractvalue { ptr, i32 } %33, 0
  store ptr %34, ptr %10, align 8
  %35 = extractvalue { ptr, i32 } %33, 1
  store i32 %35, ptr %11, align 4
  call void @_ZN13expr_replacer16scoped_set_substD2Ev(ptr noundef nonnull align 8 dereferenceable(8) %12) #3
  br label %36

36:                                               ; preds = %32, %28
  call void @llvm.lifetime.end.p0(i64 8, ptr %12) #3
  br label %37

37:                                               ; preds = %36, %24
  call void @_ZN17expr_substitutionD1Ev(ptr noundef nonnull align 8 dereferenceable(49) %9) #3
  call void @llvm.lifetime.end.p0(i64 56, ptr %9) #3
  br label %38

38:                                               ; preds = %37
  %39 = load ptr, ptr %10, align 8
  %40 = load i32, ptr %11, align 4
  %41 = insertvalue { ptr, i32 } poison, ptr %39, 0
  %42 = insertvalue { ptr, i32 } %41, i32 %40, 1
  resume { ptr, i32 } %42
}