; Function Attrs: mustprogress uwtable
define hidden void @_ZN13expr_replacer18apply_substitutionEP4exprS1_R7obj_refIS0_11ast_managerE(ptr noundef nonnull align 8 dereferenceable(8) %0, ptr noundef %1, ptr noundef %2, ptr noundef nonnull align 8 dereferenceable(16) %3) local_unnamed_addr #3 align 2 personality ptr @__gxx_personality_v0 {
  %5 = alloca %class.obj_ref.26, align 8
  %6 = alloca %class.expr_substitution, align 8
  call void @llvm.lifetime.start.p0(i64 56, ptr nonnull %6) #18
  %7 = load ptr, ptr %0, align 8, !tbaa !3
  %8 = getelementptr inbounds nuw i8, ptr %7, i64 16
  %9 = load ptr, ptr %8, align 8
  %10 = tail call noundef nonnull align 8 dereferenceable(976) ptr %9(ptr noundef nonnull align 8 dereferenceable(8) %0)
  call void @_ZN17expr_substitutionC1ER11ast_manager(ptr noundef nonnull align 8 dereferenceable(49) %6, ptr noundef nonnull align 8 dereferenceable(976) %10)
  invoke void @_ZN17expr_substitution6insertEP4exprS1_P3appPN18dependency_managerIN11ast_manager22expr_dependency_configEE10dependencyE(ptr noundef nonnull align 8 dereferenceable(49) %6, ptr noundef %1, ptr noundef %2, ptr noundef null, ptr noundef null)
          to label %11 unwind label %43

11:                                               ; preds = %4
  %12 = load ptr, ptr %0, align 8, !tbaa !3
  %13 = getelementptr inbounds nuw i8, ptr %12, i64 24
  %14 = load ptr, ptr %13, align 8
  invoke void %14(ptr noundef nonnull align 8 dereferenceable(8) %0, ptr noundef nonnull align 8 dereferenceable(49) %6)
          to label %_ZN13expr_replacer16scoped_set_substC2ERS_R17expr_substitution.exit unwind label %45

_ZN13expr_replacer16scoped_set_substC2ERS_R17expr_substitution.exit: ; preds = %11
  call void @llvm.lifetime.start.p0(i64 16, ptr nonnull %5) #18
  %15 = load ptr, ptr %3, align 8, !tbaa !21
  %16 = load ptr, ptr %0, align 8, !tbaa !3
  %17 = getelementptr inbounds nuw i8, ptr %16, i64 16
  %18 = load ptr, ptr %17, align 8
  %19 = invoke noundef nonnull align 8 dereferenceable(976) ptr %18(ptr noundef nonnull align 8 dereferenceable(8) %0)
          to label %.noexc unwind label %47

.noexc:                                           ; preds = %_ZN13expr_replacer16scoped_set_substC2ERS_R17expr_substitution.exit
  store ptr %15, ptr %5, align 8, !tbaa !21
  %20 = getelementptr inbounds nuw i8, ptr %5, i64 8
  store ptr %19, ptr %20, align 8, !tbaa !12
  %.not.i.i.i = icmp eq ptr %15, null
  br i1 %.not.i.i.i, label %_ZN7obj_refI4expr11ast_managerEC2EPS0_RS1_.exit.i, label %_ZN11ast_manager7inc_refEP3ast.exit.i.i.i

_ZN11ast_manager7inc_refEP3ast.exit.i.i.i:        ; preds = %.noexc
  %21 = getelementptr inbounds nuw i8, ptr %15, i64 8
  %22 = load i32, ptr %21, align 4, !tbaa !18
  %23 = add i32 %22, 1
  store i32 %23, ptr %21, align 4, !tbaa !18
  br label %_ZN7obj_refI4expr11ast_managerEC2EPS0_RS1_.exit.i

_ZN7obj_refI4expr11ast_managerEC2EPS0_RS1_.exit.i: ; preds = %_ZN11ast_manager7inc_refEP3ast.exit.i.i.i, %.noexc
  invoke void @_ZN13expr_replacerclEP4exprR7obj_refIS0_11ast_managerE(ptr noundef nonnull align 8 dereferenceable(8) %0, ptr noundef %15, ptr noundef nonnull align 8 dereferenceable(16) %3)
          to label %24 unwind label %34

24:                                               ; preds = %_ZN7obj_refI4expr11ast_managerEC2EPS0_RS1_.exit.i
  br i1 %.not.i.i.i, label %36, label %25

25:                                               ; preds = %24
  %26 = getelementptr inbounds nuw i8, ptr %15, i64 8
  %27 = load i32, ptr %26, align 4, !tbaa !18
  %28 = add i32 %27, -1
  store i32 %28, ptr %26, align 4, !tbaa !18
  %29 = icmp eq i32 %28, 0
  br i1 %29, label %30, label %36

30:                                               ; preds = %25
  invoke void @_ZN11ast_manager11delete_nodeEP3ast(ptr noundef nonnull align 8 dereferenceable(976) %19, ptr noundef nonnull %15)
          to label %36 unwind label %31

31:                                               ; preds = %30
  %32 = landingpad { ptr, i32 }
          catch ptr null
  %33 = extractvalue { ptr, i32 } %32, 0
  call void @__clang_call_terminate(ptr %33) #19
  unreachable

34:                                               ; preds = %_ZN7obj_refI4expr11ast_managerEC2EPS0_RS1_.exit.i
  %35 = landingpad { ptr, i32 }
          cleanup
  call void @_ZN7obj_refI4expr11ast_managerED2Ev(ptr noundef nonnull align 8 dereferenceable(16) %5) #18
  call void @llvm.lifetime.end.p0(i64 16, ptr nonnull %5) #18
  br label %.body

36:                                               ; preds = %30, %25, %24
  call void @llvm.lifetime.end.p0(i64 16, ptr nonnull %5) #18
  %37 = load ptr, ptr %0, align 8, !tbaa !3
  %38 = getelementptr inbounds nuw i8, ptr %37, i64 24
  %39 = load ptr, ptr %38, align 8
  invoke void %39(ptr noundef nonnull align 8 dereferenceable(8) %0, ptr noundef null)
          to label %_ZN13expr_replacer16scoped_set_substD2Ev.exit unwind label %40

40:                                               ; preds = %36
  %41 = landingpad { ptr, i32 }
          catch ptr null
  %42 = extractvalue { ptr, i32 } %41, 0
  call void @__clang_call_terminate(ptr %42) #19
  unreachable

_ZN13expr_replacer16scoped_set_substD2Ev.exit:    ; preds = %36
  call void @_ZN17expr_substitutionD1Ev(ptr noundef nonnull align 8 dereferenceable(49) %6) #18
  call void @llvm.lifetime.end.p0(i64 56, ptr nonnull %6) #18
  ret void

43:                                               ; preds = %4
  %44 = landingpad { ptr, i32 }
          cleanup
  br label %_ZN13expr_replacer16scoped_set_substD2Ev.exit9

45:                                               ; preds = %11
  %46 = landingpad { ptr, i32 }
          cleanup
  br label %_ZN13expr_replacer16scoped_set_substD2Ev.exit9

47:                                               ; preds = %_ZN13expr_replacer16scoped_set_substC2ERS_R17expr_substitution.exit
  %48 = landingpad { ptr, i32 }
          cleanup
  br label %.body

.body:                                            ; preds = %34, %47
  %eh.lpad-body = phi { ptr, i32 } [ %48, %47 ], [ %35, %34 ]
  %49 = load ptr, ptr %0, align 8, !tbaa !3
  %50 = getelementptr inbounds nuw i8, ptr %49, i64 24
  %51 = load ptr, ptr %50, align 8
  invoke void %51(ptr noundef nonnull align 8 dereferenceable(8) %0, ptr noundef null)
          to label %_ZN13expr_replacer16scoped_set_substD2Ev.exit9 unwind label %52

52:                                               ; preds = %.body
  %53 = landingpad { ptr, i32 }
          catch ptr null
  %54 = extractvalue { ptr, i32 } %53, 0
  call void @__clang_call_terminate(ptr %54) #19
  unreachable

_ZN13expr_replacer16scoped_set_substD2Ev.exit9:   ; preds = %45, %.body, %43
  %.pn.pn = phi { ptr, i32 } [ %44, %43 ], [ %46, %45 ], [ %eh.lpad-body, %.body ]
  call void @_ZN17expr_substitutionD1Ev(ptr noundef nonnull align 8 dereferenceable(49) %6) #18
  call void @llvm.lifetime.end.p0(i64 56, ptr nonnull %6) #18
  resume { ptr, i32 } %.pn.pn
}